; Function Attrs: nounwind uwtable
define zeroext i8 @l_Lean_getPPAnalysisLetVarType(ptr noundef %0) local_unnamed_addr #1 {
  %2 = load ptr, ptr @l_Lean_getPPAnalysisLetVarType___closed__2, align 8, !tbaa !11
  %3 = tail call ptr @l_Lean_KVMap_findCore(ptr noundef %0, ptr noundef %2) #7
  %4 = ptrtoint ptr %3 to i64
  %5 = and i64 %4, 1
  %.not.i19 = icmp eq i64 %5, 0
  br i1 %.not.i19, label %9, label %6

6:                                                ; preds = %1
  %7 = lshr i64 %4, 1
  %8 = trunc i64 %7 to i32
  br label %lean_obj_tag.exit

9:                                                ; preds = %1
  %10 = getelementptr i8, ptr %3, i64 4
  %.val.i = load i32, ptr %10, align 4
  %11 = lshr i32 %.val.i, 24
  br label %lean_obj_tag.exit

lean_obj_tag.exit:                                ; preds = %6, %9
  %.0.i = phi i32 [ %8, %6 ], [ %11, %9 ]
  %12 = icmp eq i32 %.0.i, 0
  br i1 %12, label %lean_dec.exit13, label %13

13:                                               ; preds = %lean_obj_tag.exit
  %14 = getelementptr inbounds nuw i8, ptr %3, i64 8
  %15 = load ptr, ptr %14, align 8, !tbaa !11
  %16 = ptrtoint ptr %15 to i64
  %17 = and i64 %16, 1
  %.not = icmp eq i64 %17, 0
  br i1 %.not, label %18, label %lean_inc.exit

18:                                               ; preds = %13
  %.val.i20 = load i32, ptr %15, align 4, !tbaa !8
  %19 = icmp sgt i32 %.val.i20, 0
  br i1 %19, label %20, label %22, !prof !13

20:                                               ; preds = %18
  %21 = add nuw i32 %.val.i20, 1
  store i32 %21, ptr %15, align 4, !tbaa !8
  br label %lean_inc.exit

22:                                               ; preds = %18
  %.not.i21 = icmp eq i32 %.val.i20, 0
  br i1 %.not.i21, label %lean_inc.exit, label %23

23:                                               ; preds = %22
  tail call void @lean_inc_ref_cold(ptr noundef nonnull %15) #7
  br label %lean_inc.exit

lean_inc.exit:                                    ; preds = %23, %22, %20, %13
  br i1 %.not.i19, label %24, label %lean_dec.exit14

24:                                               ; preds = %lean_inc.exit
  %25 = load i32, ptr %3, align 4, !tbaa !8
  %26 = icmp sgt i32 %25, 1
  br i1 %26, label %27, label %29, !prof !13

27:                                               ; preds = %24
  %28 = add nsw i32 %25, -1
  store i32 %28, ptr %3, align 4, !tbaa !8
  br label %lean_dec.exit14

29:                                               ; preds = %24
  %.not.i = icmp eq i32 %25, 0
  br i1 %.not.i, label %lean_dec.exit14, label %30

30:                                               ; preds = %29
  tail call void @lean_dec_ref_cold(ptr noundef nonnull %3) #7
  br label %lean_dec.exit14

lean_dec.exit14:                                  ; preds = %30, %29, %27, %lean_inc.exit
  br i1 %.not, label %lean_obj_tag.exit25, label %lean_obj_tag.exit25.thread

lean_obj_tag.exit25:                              ; preds = %lean_dec.exit14
  %31 = getelementptr i8, ptr %15, i64 4
  %.val.i24 = load i32, ptr %31, align 4
  %.mask = and i32 %.val.i24, -16777216
  %32 = icmp eq i32 %.mask, 16777216
  br i1 %32, label %37, label %46

lean_obj_tag.exit25.thread:                       ; preds = %lean_dec.exit14
  %33 = and i64 %16, 8589934590
  %34 = icmp eq i64 %33, 2
  br i1 %34, label %.thread, label %lean_dec.exit13

.thread:                                          ; preds = %lean_obj_tag.exit25.thread
  %35 = getelementptr inbounds nuw i8, ptr %15, i64 8
  %36 = load i8, ptr %35, align 1, !tbaa !14
  br label %lean_dec.exit13

37:                                               ; preds = %lean_obj_tag.exit25
  %38 = getelementptr inbounds nuw i8, ptr %15, i64 8
  %39 = load i8, ptr %38, align 1, !tbaa !14
  %40 = load i32, ptr %15, align 4, !tbaa !8
  %41 = icmp sgt i32 %40, 1
  br i1 %41, label %42, label %44, !prof !13

42:                                               ; preds = %37
  %43 = add nsw i32 %40, -1
  store i32 %43, ptr %15, align 4, !tbaa !8
  br label %lean_dec.exit13

44:                                               ; preds = %37
  %.not.i15 = icmp eq i32 %40, 0
  br i1 %.not.i15, label %lean_dec.exit13, label %45

45:                                               ; preds = %44
  tail call void @lean_dec_ref_cold(ptr noundef nonnull %15) #7
  br label %lean_dec.exit13

46:                                               ; preds = %lean_obj_tag.exit25
  %47 = load i32, ptr %15, align 4, !tbaa !8
  %48 = icmp sgt i32 %47, 1
  br i1 %48, label %49, label %51, !prof !13

49:                                               ; preds = %46
  %50 = add nsw i32 %47, -1
  store i32 %50, ptr %15, align 4, !tbaa !8
  br label %lean_dec.exit13

51:                                               ; preds = %46
  %.not.i17 = icmp eq i32 %47, 0
  br i1 %.not.i17, label %lean_dec.exit13, label %52

52:                                               ; preds = %51
  tail call void @lean_dec_ref_cold(ptr noundef nonnull %15) #7
  br label %lean_dec.exit13

lean_dec.exit13:                                  ; preds = %lean_obj_tag.exit25.thread, %.thread, %49, %51, %52, %42, %44, %45, %lean_obj_tag.exit
  %.0 = phi i8 [ 0, %lean_obj_tag.exit ], [ %39, %45 ], [ %39, %44 ], [ %39, %42 ], [ 0, %52 ], [ 0, %51 ], [ 0, %49 ], [ %36, %.thread ], [ 0, %lean_obj_tag.exit25.thread ]
  ret i8 %.0
}